; Function Attrs: mustprogress uwtable
define void @_ZN6google8protobuf8internal14ZeroFieldsBase9MergeImplERNS0_11MessageLiteERKS3_(ptr noundef nonnull align 8 dereferenceable(16) %to_param, ptr nocapture noundef nonnull readonly align 8 dereferenceable(16) %from_param) #3 align 2 {
entry:
  %_internal_metadata_1 = getelementptr inbounds i8, ptr %from_param, i64 8
  %0 = load i64, ptr %_internal_metadata_1, align 8
  %and.i6 = and i64 %0, 1
  %tobool.i7.not = icmp eq i64 %and.i6, 0
  br i1 %tobool.i7.not, label %_ZN6google8protobuf8internal16InternalMetadata9MergeFromINS0_15UnknownFieldSetEEEvRKS2_.exit, label %if.then.i.i

if.then.i.i:                                      ; preds = %entry
  %_internal_metadata_ = getelementptr inbounds i8, ptr %to_param, i64 8
  %and.i = and i64 %0, -2
  %1 = inttoptr i64 %and.i to ptr
  %unknown_fields.i.i = getelementptr inbounds i8, ptr %1, i64 8
  tail call void @_ZN6google8protobuf8internal16InternalMetadata11DoMergeFromINS0_15UnknownFieldSetEEEvRKT_(ptr noundef nonnull align 8 dereferenceable(8) %_internal_metadata_, ptr noundef nonnull align 8 dereferenceable(24) %unknown_fields.i.i)
  br label %_ZN6google8protobuf8internal16InternalMetadata9MergeFromINS0_15UnknownFieldSetEEEvRKS2_.exit

_ZN6google8protobuf8internal16InternalMetadata9MergeFromINS0_15UnknownFieldSetEEEvRKS2_.exit: ; preds = %if.then.i.i, %entry
  ret void
}